target datalayout = "e-m:e-p270:32:32-p271:32:32-p272:64:64-i64:64-i128:128-f80:128-n8:16:32:64-S128"
target triple = "x86_64-unknown-linux-gnu"

%struct.QEMUTimerListGroup = type { [4 x ptr] }
%struct.QEMUClock = type { %struct.anon.0, i32, i8 }
%struct.anon.0 = type { ptr }
%struct.QEMUTimerList = type { ptr, %struct.QemuMutex, ptr, %struct.anon, ptr, ptr, %struct.QemuEvent }
%struct.QemuMutex = type { %union.pthread_mutex_t, i8 }
%union.pthread_mutex_t = type { %struct.__pthread_mutex_s }
%struct.__pthread_mutex_s = type { i32, i32, i32, i32, i32, i16, i16, %struct.__pthread_internal_list }
%struct.__pthread_internal_list = type { ptr, ptr }
%struct.anon = type { ptr, ptr }
%struct.QemuEvent = type { i32, i8 }
%struct.QemuLockable = type { ptr, ptr, ptr }
%struct.QEMUTimer = type { i64, ptr, ptr, ptr, ptr, i32, i32 }

@.str.1 = private unnamed_addr constant [26 x i8] c"../qemu/util/qemu-timer.c\00", align 1
@main_loop_tlg = dso_local global %struct.QEMUTimerListGroup zeroinitializer, align 8
@__func__.timerlist_expired = private unnamed_addr constant [18 x i8] c"timerlist_expired\00", align 1

; Function Attrs: nounwind sspstrong uwtable
define internal void @glib_autoptr_clear_QemuLockable(ptr noundef %_ptr) #0 {
entry:
  %_ptr.addr = alloca ptr, align 8
  store ptr %_ptr, ptr %_ptr.addr, align 8
  %0 = load ptr, ptr %_ptr.addr, align 8
  %tobool = icmp ne ptr %0, null
  br i1 %tobool, label %if.then, label %if.end

if.then:                                          ; preds = %entry
  %1 = load ptr, ptr %_ptr.addr, align 8
  call void @qemu_lockable_auto_unlock(ptr noundef %1)
  br label %if.end

if.end:                                           ; preds = %if.then, %entry
  ret void
}

; Function Attrs: nounwind sspstrong uwtable
define internal void @qemu_lockable_unlock(ptr noundef %x) #0 {
entry:
  %x.addr = alloca ptr, align 8
  store ptr %x, ptr %x.addr, align 8
  %0 = load ptr, ptr %x.addr, align 8
  %unlock = getelementptr inbounds %struct.QemuLockable, ptr %0, i32 0, i32 2
  %1 = load ptr, ptr %unlock, align 8
  %2 = load ptr, ptr %x.addr, align 8
  %object = getelementptr inbounds %struct.QemuLockable, ptr %2, i32 0, i32 0
  %3 = load ptr, ptr %object, align 8
  call void %1(ptr noundef %3)
  ret void
}

; Function Attrs: nounwind sspstrong uwtable
define internal void @qemu_lockable_lock(ptr noundef %x) #0 {
entry:
  %x.addr = alloca ptr, align 8
  store ptr %x, ptr %x.addr, align 8
  %0 = load ptr, ptr %x.addr, align 8
  %lock = getelementptr inbounds %struct.QemuLockable, ptr %0, i32 0, i32 1
  %1 = load ptr, ptr %lock, align 8
  %2 = load ptr, ptr %x.addr, align 8
  %object = getelementptr inbounds %struct.QemuLockable, ptr %2, i32 0, i32 0
  %3 = load ptr, ptr %object, align 8
  call void %1(ptr noundef %3)
  ret void
}

; Function Attrs: nounwind sspstrong uwtable
define internal void @glib_autoptr_cleanup_QemuLockable(ptr noundef %_ptr) #0 {
entry:
  %_ptr.addr = alloca ptr, align 8
  store ptr %_ptr, ptr %_ptr.addr, align 8
  %0 = load ptr, ptr %_ptr.addr, align 8
  %1 = load ptr, ptr %0, align 8
  call void @glib_autoptr_clear_QemuLockable(ptr noundef %1)
  ret void
}

; Function Attrs: nounwind sspstrong uwtable
define internal void @qemu_lockable_auto_unlock(ptr noundef %x) #0 {
entry:
  %x.addr = alloca ptr, align 8
  store ptr %x, ptr %x.addr, align 8
  %0 = load ptr, ptr %x.addr, align 8
  %tobool = icmp ne ptr %0, null
  br i1 %tobool, label %if.then, label %if.end

if.then:                                          ; preds = %entry
  %1 = load ptr, ptr %x.addr, align 8
  call void @qemu_lockable_unlock(ptr noundef %1)
  br label %if.end

if.end:                                           ; preds = %if.then, %entry
  ret void
}

; Function Attrs: nounwind sspstrong uwtable
define internal ptr @qemu_lockable_auto_lock(ptr noundef %x) #0 {
entry:
  %x.addr = alloca ptr, align 8
  store ptr %x, ptr %x.addr, align 8
  %0 = load ptr, ptr %x.addr, align 8
  call void @qemu_lockable_lock(ptr noundef %0)
  %1 = load ptr, ptr %x.addr, align 8
  ret ptr %1
}

; Function Attrs: nounwind sspstrong uwtable
define dso_local zeroext i1 @timerlist_expired(ptr noundef %timer_list) #0 {
entry:
  %retval = alloca i1, align 1
  %timer_list.addr = alloca ptr, align 8
  %expire_time = alloca i64, align 8
  %tmp = alloca ptr, align 8
  %atomic-temp = alloca ptr, align 8
  %qemu_lockable_auto0 = alloca ptr, align 8
  %.compoundliteral = alloca %struct.QemuLockable, align 8
  %cleanup.dest.slot = alloca i32, align 4
  store ptr %timer_list, ptr %timer_list.addr, align 8
  br label %while.cond

while.cond:                                       ; preds = %do.end, %entry
  br i1 false, label %while.body, label %while.end

while.body:                                       ; preds = %while.cond
  br label %do.body

do.body:                                          ; preds = %while.body
  call void @g_assertion_message_expr(ptr noundef null, ptr noundef @.str.1, i32 noundef 187, ptr noundef @__func__.timerlist_expired, ptr noundef null) #8
  unreachable

do.end:                                           ; No predecessors!
  br label %while.cond

while.end:                                        ; preds = %while.cond
  %0 = load ptr, ptr %timer_list.addr, align 8
  %active_timers = getelementptr inbounds %struct.QEMUTimerList, ptr %0, i32 0, i32 2
  %1 = load atomic i64, ptr %active_timers monotonic, align 8
  store i64 %1, ptr %atomic-temp, align 8
  %2 = load ptr, ptr %atomic-temp, align 8
  store ptr %2, ptr %tmp, align 8
  %3 = load ptr, ptr %tmp, align 8
  %tobool = icmp ne ptr %3, null
  br i1 %tobool, label %if.end, label %if.then

if.then:                                          ; preds = %while.end
  store i1 false, ptr %retval, align 1
  br label %return

if.end:                                           ; preds = %while.end
  %object = getelementptr inbounds %struct.QemuLockable, ptr %.compoundliteral, i32 0, i32 0
  %4 = load ptr, ptr %timer_list.addr, align 8
  %active_timers_lock = getelementptr inbounds %struct.QEMUTimerList, ptr %4, i32 0, i32 1
  store ptr %active_timers_lock, ptr %object, align 8
  %lock = getelementptr inbounds %struct.QemuLockable, ptr %.compoundliteral, i32 0, i32 1
  store ptr @qemu_mutex_lock, ptr %lock, align 8
  %unlock = getelementptr inbounds %struct.QemuLockable, ptr %.compoundliteral, i32 0, i32 2
  store ptr @qemu_mutex_unlock, ptr %unlock, align 8
  %call = call ptr @qemu_lockable_auto_lock(ptr noundef %.compoundliteral)
  store ptr %call, ptr %qemu_lockable_auto0, align 8
  br label %for.cond

for.cond:                                         ; preds = %for.inc, %if.end
  %5 = load ptr, ptr %qemu_lockable_auto0, align 8
  %tobool1 = icmp ne ptr %5, null
  br i1 %tobool1, label %for.body, label %for.cond.cleanup

for.cond.cleanup:                                 ; preds = %for.cond
  store i32 6, ptr %cleanup.dest.slot, align 4
  br label %cleanup

for.body:                                         ; preds = %for.cond
  %6 = load ptr, ptr %timer_list.addr, align 8
  %active_timers2 = getelementptr inbounds %struct.QEMUTimerList, ptr %6, i32 0, i32 2
  %7 = load ptr, ptr %active_timers2, align 8
  %tobool3 = icmp ne ptr %7, null
  br i1 %tobool3, label %if.end5, label %if.then4

if.then4:                                         ; preds = %for.body
  store i1 false, ptr %retval, align 1
  store i32 1, ptr %cleanup.dest.slot, align 4
  br label %cleanup

if.end5:                                          ; preds = %for.body
  %8 = load ptr, ptr %timer_list.addr, align 8
  %active_timers6 = getelementptr inbounds %struct.QEMUTimerList, ptr %8, i32 0, i32 2
  %9 = load ptr, ptr %active_timers6, align 8
  %expire_time7 = getelementptr inbounds %struct.QEMUTimer, ptr %9, i32 0, i32 0
  %10 = load i64, ptr %expire_time7, align 8
  store i64 %10, ptr %expire_time, align 8
  br label %for.inc

for.inc:                                          ; preds = %if.end5
  %11 = load ptr, ptr %qemu_lockable_auto0, align 8
  call void @qemu_lockable_auto_unlock(ptr noundef %11)
  store ptr null, ptr %qemu_lockable_auto0, align 8
  br label %for.cond, !llvm.loop !8

cleanup:                                          ; preds = %if.then4, %for.cond.cleanup
  call void @glib_autoptr_cleanup_QemuLockable(ptr noundef %qemu_lockable_auto0)
  %cleanup.dest = load i32, ptr %cleanup.dest.slot, align 4
  switch i32 %cleanup.dest, label %unreachable [
    i32 6, label %for.end
    i32 1, label %return
  ]

for.end:                                          ; preds = %cleanup
  %12 = load i64, ptr %expire_time, align 8
  %13 = load ptr, ptr %timer_list.addr, align 8
  %clock = getelementptr inbounds %struct.QEMUTimerList, ptr %13, i32 0, i32 0
  %14 = load ptr, ptr %clock, align 8
  %type = getelementptr inbounds %struct.QEMUClock, ptr %14, i32 0, i32 1
  %15 = load i32, ptr %type, align 8
  %call8 = call i64 @qemu_clock_get_ns(i32 noundef %15)
  %cmp = icmp sle i64 %12, %call8
  store i1 %cmp, ptr %retval, align 1
  br label %return

return:                                           ; preds = %for.end, %cleanup, %if.then
  %16 = load i1, ptr %retval, align 1
  ret i1 %16

unreachable:                                      ; preds = %cleanup
  unreachable
}

; Function Attrs: nounwind sspstrong uwtable
define dso_local zeroext i1 @qemu_clock_expired(i32 noundef %type) #0 {
entry:
  %type.addr = alloca i32, align 4
  store i32 %type, ptr %type.addr, align 4
  %0 = load i32, ptr %type.addr, align 4
  %idxprom = zext i32 %0 to i64
  %arrayidx = getelementptr [4 x ptr], ptr @main_loop_tlg, i64 0, i64 %idxprom
  %1 = load ptr, ptr %arrayidx, align 8
  %call = call zeroext i1 @timerlist_expired(ptr noundef %1)
  ret i1 %call
}