; Function Attrs: nounwind sspstrong uwtable
define dso_local zeroext i1 @qemu_clock_expired(i32 noundef %type) local_unnamed_addr #0 {
entry:
  %idxprom = zext i32 %type to i64
  %arrayidx = getelementptr [4 x ptr], ptr @main_loop_tlg, i64 0, i64 %idxprom
  %0 = load ptr, ptr %arrayidx, align 8
  %active_timers.i = getelementptr inbounds nuw i8, ptr %0, i64 56
  %1 = load atomic i64, ptr %active_timers.i monotonic, align 8
  %tobool.not.i = icmp eq i64 %1, 0
  br i1 %tobool.not.i, label %timerlist_expired.exit, label %for.body.us.i

for.body.us.i:                                    ; preds = %entry
  %active_timers_lock.i = getelementptr inbounds nuw i8, ptr %0, i64 8
  %2 = load atomic i64, ptr @qemu_mutex_lock_func monotonic, align 8
  %3 = inttoptr i64 %2 to ptr
  tail call void %3(ptr noundef nonnull %active_timers_lock.i, ptr noundef nonnull @.str.3, i32 noundef 122) #17
  %4 = load ptr, ptr %active_timers.i, align 8
  %tobool3.not.us.i = icmp eq ptr %4, null
  br i1 %tobool3.not.us.i, label %glib_autoptr_cleanup_QemuLockable.exit.i, label %qemu_lockable_auto_unlock.exit.us.i

qemu_lockable_auto_unlock.exit.us.i:              ; preds = %for.body.us.i
  %5 = load i64, ptr %4, align 8
  tail call void @qemu_mutex_unlock_impl(ptr noundef nonnull %active_timers_lock.i, ptr noundef nonnull @.str.3, i32 noundef 132) #17
  %6 = load ptr, ptr %0, align 8
  %type.i = getelementptr inbounds nuw i8, ptr %6, i64 8
  %7 = load i32, ptr %type.i, align 8
  %call8.i = tail call i64 @qemu_clock_get_ns(i32 noundef %7)
  %cmp.i = icmp sle i64 %5, %call8.i
  br label %timerlist_expired.exit

glib_autoptr_cleanup_QemuLockable.exit.i:         ; preds = %for.body.us.i
  tail call void @qemu_mutex_unlock_impl(ptr noundef nonnull %active_timers_lock.i, ptr noundef nonnull @.str.3, i32 noundef 132) #17
  br label %timerlist_expired.exit

timerlist_expired.exit:                           ; preds = %entry, %qemu_lockable_auto_unlock.exit.us.i, %glib_autoptr_cleanup_QemuLockable.exit.i
  %retval.0.i = phi i1 [ false, %glib_autoptr_cleanup_QemuLockable.exit.i ], [ %cmp.i, %qemu_lockable_auto_unlock.exit.us.i ], [ false, %entry ]
  ret i1 %retval.0.i
}